target datalayout = "e-m:e-p270:32:32-p271:32:32-p272:64:64-i64:64-i128:128-f80:128-n8:16:32:64-S128"
target triple = "x86_64-pc-linux-gnu"

%class.QObject = type { ptr, %class.QScopedPointer }
%class.QScopedPointer = type { ptr }
%class.QString = type { %struct.QArrayDataPointer }
%struct.QArrayDataPointer = type { ptr, ptr, i64 }
%class.CFrmSettings = type { %class.QDialog, %class.QString, ptr, ptr, ptr, ptr, ptr, ptr, ptr, ptr, ptr, ptr, ptr }
%class.QDialog = type { %class.QWidget }
%class.QWidget = type { %class.QObject, %class.QPaintDevice.base, ptr }
%class.QPaintDevice.base = type <{ ptr, i16 }>
%class.MdiChild = type <{ %class.QTextEdit, i32, i32, %class.QString, i8, i8, [6 x i8], %class.QString, %"class.std::unique_ptr", ptr, i8, [7 x i8], %class.QString, i8, [7 x i8] }>
%class.QTextEdit = type { %class.QAbstractScrollArea }
%class.QAbstractScrollArea = type { %class.QFrame }
%class.QFrame = type { %class.QWidget }
%"class.std::unique_ptr" = type { %"struct.std::__uniq_ptr_data" }
%"struct.std::__uniq_ptr_data" = type { %"class.std::__uniq_ptr_impl" }
%"class.std::__uniq_ptr_impl" = type { %"class.std::tuple" }
%"class.std::tuple" = type { %"struct.std::_Tuple_impl" }
%"struct.std::_Tuple_impl" = type { %"struct.std::_Head_base.27" }
%"struct.std::_Head_base.27" = type { ptr }

; Function Attrs: mustprogress nounwind uwtable
define noundef ptr @_ZN12CFrmSettings15getActiveWindowEv(ptr noundef nonnull align 8 dereferenceable(152) %0) #4 align 2 {
  %2 = alloca ptr, align 8
  store ptr %0, ptr %2, align 8, !tbaa !55
  %3 = load ptr, ptr %2, align 8
  %4 = getelementptr inbounds nuw %class.CFrmSettings, ptr %3, i32 0, i32 4
  %5 = load ptr, ptr %4, align 8, !tbaa !74
  ret ptr %5
}

; Function Attrs: mustprogress uwtable
define noundef i32 @_ZN12CFrmSettings9drawGraphEv(ptr noundef nonnull align 8 dereferenceable(152) %0) #0 align 2 {
  %2 = alloca ptr, align 8
  store ptr %0, ptr %2, align 8, !tbaa !55
  %3 = load ptr, ptr %2, align 8
  %4 = call noundef zeroext i1 @_ZN12CFrmSettings12createLayoutEv(ptr noundef nonnull align 8 dereferenceable(152) %3)
  br i1 %4, label %5, label %10

5:                                                ; preds = %1
  %6 = call noundef zeroext i1 @_ZN12CFrmSettings12renderLayoutEv(ptr noundef nonnull align 8 dereferenceable(152) %3)
  br i1 %6, label %7, label %10

7:                                                ; preds = %5
  %8 = call noundef ptr @_ZN12CFrmSettings15getActiveWindowEv(ptr noundef nonnull align 8 dereferenceable(152) %3)
  %9 = getelementptr inbounds nuw %class.MdiChild, ptr %8, i32 0, i32 10
  store i8 0, ptr %9, align 8, !tbaa !210
  br label %10

10:                                               ; preds = %7, %5, %1
  %11 = call i32 @agreseterrors()
  ret i32 1
}