; Function Attrs: mustprogress uwtable
define noundef i32 @_ZN12CFrmSettings9drawGraphEv(ptr noundef nonnull align 8 dereferenceable(152) %0) local_unnamed_addr #0 align 2 {
  %2 = tail call noundef zeroext i1 @_ZN12CFrmSettings12createLayoutEv(ptr noundef nonnull align 8 dereferenceable(152) %0)
  br i1 %2, label %3, label %9

3:                                                ; preds = %1
  %4 = tail call noundef zeroext i1 @_ZN12CFrmSettings12renderLayoutEv(ptr noundef nonnull align 8 dereferenceable(152) %0)
  br i1 %4, label %5, label %9

5:                                                ; preds = %3
  %6 = getelementptr inbounds nuw i8, ptr %0, i64 80
  %7 = load ptr, ptr %6, align 8, !tbaa !236
  %8 = getelementptr inbounds nuw i8, ptr %7, i64 120
  store i8 0, ptr %8, align 8, !tbaa !237
  br label %9

9:                                                ; preds = %5, %3, %1
  %10 = tail call i32 @agreseterrors()
  ret i32 1
}